target datalayout = "e-m:e-p270:32:32-p271:32:32-p272:64:64-i64:64-i128:128-f80:128-n8:16:32:64-S128"
target triple = "x86_64-pc-linux-gnu"

%struct._zend_array = type { %struct._zend_refcounted_h, %union.anon.0, i32, %union.anon.1, i32, i32, i32, i32, i64, ptr }
%struct._zend_refcounted_h = type { i32, %union.anon }
%union.anon = type { i32 }
%union.anon.0 = type { i32 }
%union.anon.1 = type { ptr }
%struct._zend_op_array = type { i8, [3 x i8], i32, ptr, ptr, ptr, i32, i32, ptr, ptr, ptr, ptr, i32, i32, i32, i32, ptr, ptr, ptr, ptr, ptr, i32, i32, ptr, ptr, ptr, i32, i32, i32, i32, ptr, ptr, [6 x ptr] }
%struct._zend_persistent_script = type { %struct._zend_script, i64, i32, i64, i8, i8, i8, i32, i32, ptr, ptr, ptr, i64, %struct.zend_persistent_script_dynamic_members }
%struct._zend_script = type { ptr, %struct._zend_op_array, %struct._zend_array, %struct._zend_array }
%struct.zend_persistent_script_dynamic_members = type { i64, i64, i32, i64 }

; Function Attrs: nounwind uwtable
define hidden ptr @create_persistent_script() #0 {
  %1 = alloca ptr, align 8
  %2 = call noalias ptr @_emalloc_512()
  store ptr %2, ptr %1, align 8
  %3 = load ptr, ptr %1, align 8
  call void @llvm.memset.p0.i64(ptr align 8 %3, i8 0, i64 464, i1 false)
  %4 = load ptr, ptr %1, align 8
  %5 = getelementptr inbounds %struct._zend_persistent_script, ptr %4, i32 0, i32 0
  %6 = getelementptr inbounds %struct._zend_script, ptr %5, i32 0, i32 2
  call void @_zend_hash_init(ptr noundef %6, i32 noundef 0, ptr noundef @zend_function_dtor, i1 noundef zeroext false)
  %7 = load ptr, ptr %1, align 8
  %8 = getelementptr inbounds %struct._zend_persistent_script, ptr %7, i32 0, i32 0
  %9 = getelementptr inbounds %struct._zend_script, ptr %8, i32 0, i32 3
  call void @_zend_hash_init(ptr noundef %9, i32 noundef 0, ptr noundef @destroy_zend_class, i1 noundef zeroext false)
  %10 = load ptr, ptr %1, align 8
  ret ptr %10
}