; Function Attrs: nounwind uwtable
define hidden noundef ptr @create_persistent_script() local_unnamed_addr #0 {
  %1 = tail call noalias ptr @_emalloc_512() #10
  tail call void @llvm.memset.p0.i64(ptr noundef nonnull align 8 dereferenceable(464) %1, i8 0, i64 464, i1 false)
  %2 = getelementptr inbounds i8, ptr %1, i64 248
  tail call void @_zend_hash_init(ptr noundef nonnull %2, i32 noundef 0, ptr noundef nonnull @zend_function_dtor, i1 noundef zeroext false) #10
  %3 = getelementptr inbounds i8, ptr %1, i64 304
  tail call void @_zend_hash_init(ptr noundef nonnull %3, i32 noundef 0, ptr noundef nonnull @destroy_zend_class, i1 noundef zeroext false) #10
  ret ptr %1
}